target datalayout = "e-m:e-p270:32:32-p271:32:32-p272:64:64-i64:64-i128:128-f80:128-n8:16:32:64-S128"
target triple = "x86_64-pc-linux-gnu"

%struct._zend_array = type { %struct._zend_refcounted_h, %union.anon.4, i32, %union.anon.6, i32, i32, i32, i32, i64, ptr }
%struct._zend_refcounted_h = type { i32, %union.anon.3 }
%union.anon.3 = type { i32 }
%union.anon.4 = type { i32 }
%union.anon.6 = type { ptr }
%struct._zend_execute_data = type { ptr, ptr, ptr, ptr, %struct._zval_struct, ptr, ptr, ptr, ptr }
%struct._zval_struct = type { %union._zend_value, %union.anon, %union.anon.2 }
%union._zend_value = type { i64 }
%union.anon = type { i32 }
%union.anon.2 = type { i32 }
%struct._Bucket = type { %struct._zval_struct, i64, ptr }
%struct.pdo_driver_t = type { ptr, i64, i64, ptr }
%struct.anon.0 = type { i8, i8, %union.anon.1 }
%union.anon.1 = type { i16 }

@pdo_driver_hash = hidden global %struct._zend_array zeroinitializer, align 8

; Function Attrs: alwaysinline nounwind uwtable
define internal zeroext i8 @zval_get_type(ptr noundef %0) #5 {
  %2 = alloca ptr, align 8
  store ptr %0, ptr %2, align 8, !tbaa !13
  %3 = load ptr, ptr %2, align 8, !tbaa !13
  %4 = getelementptr inbounds nuw %struct._zval_struct, ptr %3, i32 0, i32 1
  %5 = getelementptr inbounds nuw %struct.anon.0, ptr %4, i32 0, i32 0
  %6 = load i8, ptr %5, align 8, !tbaa !15
  ret i8 %6
}

; Function Attrs: nounwind uwtable
define hidden void @zif_pdo_drivers(ptr noundef %0, ptr noundef %1) #0 {
  %3 = alloca ptr, align 8
  %4 = alloca ptr, align 8
  %5 = alloca ptr, align 8
  %6 = alloca i32, align 4
  %7 = alloca ptr, align 8
  %8 = alloca ptr, align 8
  %9 = alloca ptr, align 8
  %10 = alloca ptr, align 8
  %11 = alloca ptr, align 8
  %12 = alloca ptr, align 8
  store ptr %0, ptr %3, align 8, !tbaa !11
  store ptr %1, ptr %4, align 8, !tbaa !13
  call void @llvm.lifetime.start.p0(i64 8, ptr %5) #14
  br label %13

13:                                               ; preds = %2
  %14 = load ptr, ptr %3, align 8, !tbaa !11
  %15 = getelementptr inbounds nuw %struct._zend_execute_data, ptr %14, i32 0, i32 4
  %16 = getelementptr inbounds nuw %struct._zval_struct, ptr %15, i32 0, i32 2
  %17 = load i32, ptr %16, align 4, !tbaa !15
  %18 = icmp ne i32 %17, 0
  %19 = xor i1 %18, true
  %20 = xor i1 %19, true
  %21 = zext i1 %20 to i32
  %22 = sext i32 %21 to i64
  %23 = call i64 @llvm.expect.i64(i64 %22, i64 0)
  %24 = icmp ne i64 %23, 0
  br i1 %24, label %25, label %26

25:                                               ; preds = %13
  call void @zend_wrong_parameters_none_error()
  store i32 1, ptr %6, align 4
  br label %97

26:                                               ; preds = %13
  br label %27

27:                                               ; preds = %26
  br label %28

28:                                               ; preds = %27
  br label %29

29:                                               ; preds = %28
  call void @llvm.lifetime.start.p0(i64 8, ptr %7) #14
  %30 = call ptr @_zend_new_array_0()
  store ptr %30, ptr %7, align 8, !tbaa !16
  call void @llvm.lifetime.start.p0(i64 8, ptr %8) #14
  %31 = load ptr, ptr %4, align 8, !tbaa !13
  store ptr %31, ptr %8, align 8, !tbaa !13
  %32 = load ptr, ptr %7, align 8, !tbaa !16
  %33 = load ptr, ptr %8, align 8, !tbaa !13
  %34 = getelementptr inbounds nuw %struct._zval_struct, ptr %33, i32 0, i32 0
  store ptr %32, ptr %34, align 8, !tbaa !15
  %35 = load ptr, ptr %8, align 8, !tbaa !13
  %36 = getelementptr inbounds nuw %struct._zval_struct, ptr %35, i32 0, i32 1
  store i32 775, ptr %36, align 8, !tbaa !15
  call void @llvm.lifetime.end.p0(i64 8, ptr %8) #14
  call void @llvm.lifetime.end.p0(i64 8, ptr %7) #14
  br label %37

37:                                               ; preds = %29
  br label %38

38:                                               ; preds = %37
  br label %39

39:                                               ; preds = %38
  call void @llvm.lifetime.start.p0(i64 8, ptr %9) #14
  store ptr @pdo_driver_hash, ptr %9, align 8, !tbaa !16
  call void @llvm.lifetime.start.p0(i64 8, ptr %10) #14
  %40 = load ptr, ptr %9, align 8, !tbaa !16
  %41 = getelementptr inbounds nuw %struct._zend_array, ptr %40, i32 0, i32 3
  %42 = load ptr, ptr %41, align 8, !tbaa !15
  %43 = getelementptr inbounds %struct._Bucket, ptr %42, i64 0
  store ptr %43, ptr %10, align 8, !tbaa !18
  call void @llvm.lifetime.start.p0(i64 8, ptr %11) #14
  %44 = load ptr, ptr %9, align 8, !tbaa !16
  %45 = getelementptr inbounds nuw %struct._zend_array, ptr %44, i32 0, i32 3
  %46 = load ptr, ptr %45, align 8, !tbaa !15
  %47 = load ptr, ptr %9, align 8, !tbaa !16
  %48 = getelementptr inbounds nuw %struct._zend_array, ptr %47, i32 0, i32 4
  %49 = load i32, ptr %48, align 8, !tbaa !20
  %50 = zext i32 %49 to i64
  %51 = getelementptr inbounds nuw %struct._Bucket, ptr %46, i64 %50
  store ptr %51, ptr %11, align 8, !tbaa !18
  %52 = load ptr, ptr %9, align 8, !tbaa !16
  %53 = getelementptr inbounds nuw %struct._zend_array, ptr %52, i32 0, i32 1
  %54 = load i32, ptr %53, align 8, !tbaa !15
  %55 = and i32 %54, 4
  %56 = icmp ne i32 %55, 0
  %57 = xor i1 %56, true
  call void @llvm.assume(i1 %57)
  br label %58

58:                                               ; preds = %91, %39
  %59 = load ptr, ptr %10, align 8, !tbaa !18
  %60 = load ptr, ptr %11, align 8, !tbaa !18
  %61 = icmp ne ptr %59, %60
  br i1 %61, label %62, label %94

62:                                               ; preds = %58
  call void @llvm.lifetime.start.p0(i64 8, ptr %12) #14
  %63 = load ptr, ptr %10, align 8, !tbaa !18
  %64 = getelementptr inbounds nuw %struct._Bucket, ptr %63, i32 0, i32 0
  store ptr %64, ptr %12, align 8, !tbaa !13
  %65 = load ptr, ptr %12, align 8, !tbaa !13
  %66 = call zeroext i8 @zval_get_type(ptr noundef %65)
  %67 = zext i8 %66 to i32
  %68 = icmp eq i32 %67, 0
  %69 = xor i1 %68, true
  %70 = xor i1 %69, true
  %71 = zext i1 %70 to i32
  %72 = sext i32 %71 to i64
  %73 = call i64 @llvm.expect.i64(i64 %72, i64 0)
  %74 = icmp ne i64 %73, 0
  br i1 %74, label %75, label %76

75:                                               ; preds = %62
  store i32 10, ptr %6, align 4
  br label %88

76:                                               ; preds = %62
  %77 = load ptr, ptr %12, align 8, !tbaa !13
  %78 = getelementptr inbounds nuw %struct._zval_struct, ptr %77, i32 0, i32 0
  %79 = load ptr, ptr %78, align 8, !tbaa !15
  store ptr %79, ptr %5, align 8, !tbaa !24
  %80 = load ptr, ptr %4, align 8, !tbaa !13
  %81 = load ptr, ptr %5, align 8, !tbaa !24
  %82 = getelementptr inbounds nuw %struct.pdo_driver_t, ptr %81, i32 0, i32 0
  %83 = load ptr, ptr %82, align 8, !tbaa !25
  %84 = load ptr, ptr %5, align 8, !tbaa !24
  %85 = getelementptr inbounds nuw %struct.pdo_driver_t, ptr %84, i32 0, i32 1
  %86 = load i64, ptr %85, align 8, !tbaa !28
  %87 = call i32 @add_next_index_stringl(ptr noundef %80, ptr noundef %83, i64 noundef %86)
  store i32 0, ptr %6, align 4
  br label %88

88:                                               ; preds = %76, %75
  call void @llvm.lifetime.end.p0(i64 8, ptr %12) #14
  %89 = load i32, ptr %6, align 4
  switch i32 %89, label %100 [
    i32 0, label %90
    i32 10, label %91
  ]

90:                                               ; preds = %88
  br label %91

91:                                               ; preds = %90, %88
  %92 = load ptr, ptr %10, align 8, !tbaa !18
  %93 = getelementptr inbounds nuw %struct._Bucket, ptr %92, i32 1
  store ptr %93, ptr %10, align 8, !tbaa !18
  br label %58

94:                                               ; preds = %58
  call void @llvm.lifetime.end.p0(i64 8, ptr %11) #14
  call void @llvm.lifetime.end.p0(i64 8, ptr %10) #14
  call void @llvm.lifetime.end.p0(i64 8, ptr %9) #14
  br label %95

95:                                               ; preds = %94
  br label %96

96:                                               ; preds = %95
  store i32 0, ptr %6, align 4
  br label %97

97:                                               ; preds = %96, %25
  call void @llvm.lifetime.end.p0(i64 8, ptr %5) #14
  %98 = load i32, ptr %6, align 4
  switch i32 %98, label %100 [
    i32 0, label %99
    i32 1, label %99
  ]

99:                                               ; preds = %97, %97
  ret void

100:                                              ; preds = %97, %88
  unreachable
}